target datalayout = "e-m:e-p270:32:32-p271:32:32-p272:64:64-i64:64-i128:128-f80:128-n8:16:32:64-S128"
target triple = "x86_64-pc-linux-gnu"

%struct.LZ4F_preferences_t = type { %struct.LZ4F_frameInfo_t, i32, i32, i32, [3 x i32] }
%struct.LZ4F_frameInfo_t = type { i32, i32, i32, i32, i64, i32, i32 }

@LZ4F_getBlockSize.blockSizes = internal constant [4 x i64] [i64 65536, i64 262144, i64 1048576, i64 4194304], align 16

; Function Attrs: nounwind uwtable
define internal i64 @LZ4F_returnErrorCode(i32 noundef %0) #0 {
  %2 = alloca i32, align 4
  store i32 %0, ptr %2, align 4, !tbaa !10
  %3 = load i32, ptr %2, align 4, !tbaa !10
  %4 = zext i32 %3 to i64
  %5 = sub nsw i64 0, %4
  ret i64 %5
}

; Function Attrs: nounwind uwtable
define i64 @LZ4F_getBlockSize(i32 noundef %0) #0 {
  %2 = alloca i64, align 8
  %3 = alloca i32, align 4
  %4 = alloca i32, align 4
  store i32 %0, ptr %3, align 4, !tbaa !10
  %5 = load i32, ptr %3, align 4, !tbaa !10
  %6 = icmp eq i32 %5, 0
  br i1 %6, label %7, label %8

7:                                                ; preds = %1
  store i32 4, ptr %3, align 4, !tbaa !10
  br label %8

8:                                                ; preds = %7, %1
  %9 = load i32, ptr %3, align 4, !tbaa !10
  %10 = icmp ult i32 %9, 4
  br i1 %10, label %14, label %11

11:                                               ; preds = %8
  %12 = load i32, ptr %3, align 4, !tbaa !10
  %13 = icmp ugt i32 %12, 7
  br i1 %13, label %14, label %16

14:                                               ; preds = %11, %8
  %15 = call i64 @LZ4F_returnErrorCode(i32 noundef 2)
  store i64 %15, ptr %2, align 8
  br label %23

16:                                               ; preds = %11
  call void @llvm.lifetime.start.p0(i64 4, ptr %4) #8
  %17 = load i32, ptr %3, align 4, !tbaa !10
  %18 = sub nsw i32 %17, 4
  store i32 %18, ptr %4, align 4, !tbaa !10
  %19 = load i32, ptr %4, align 4, !tbaa !10
  %20 = sext i32 %19 to i64
  %21 = getelementptr inbounds [4 x i64], ptr @LZ4F_getBlockSize.blockSizes, i64 0, i64 %20
  %22 = load i64, ptr %21, align 8, !tbaa !3
  store i64 %22, ptr %2, align 8
  call void @llvm.lifetime.end.p0(i64 4, ptr %4) #8
  br label %23

23:                                               ; preds = %16, %14
  %24 = load i64, ptr %2, align 8
  ret i64 %24
}

; Function Attrs: nounwind uwtable
define internal i64 @LZ4F_compressBound_internal(i64 noundef %0, ptr noundef %1, i64 noundef %2) #0 {
  %4 = alloca i64, align 8
  %5 = alloca ptr, align 8
  %6 = alloca i64, align 8
  %7 = alloca %struct.LZ4F_preferences_t, align 8
  %8 = alloca ptr, align 8
  %9 = alloca i32, align 4
  %10 = alloca i32, align 4
  %11 = alloca i64, align 8
  %12 = alloca i64, align 8
  %13 = alloca i64, align 8
  %14 = alloca i64, align 8
  %15 = alloca i32, align 4
  %16 = alloca i64, align 8
  %17 = alloca i64, align 8
  %18 = alloca i32, align 4
  %19 = alloca i64, align 8
  %20 = alloca i64, align 8
  store i64 %0, ptr %4, align 8, !tbaa !3
  store ptr %1, ptr %5, align 8, !tbaa !12
  store i64 %2, ptr %6, align 8, !tbaa !3
  call void @llvm.lifetime.start.p0(i64 56, ptr %7) #8
  call void @llvm.memset.p0.i64(ptr align 8 %7, i8 0, i64 56, i1 false)
  %21 = getelementptr inbounds %struct.LZ4F_preferences_t, ptr %7, i32 0, i32 0
  %22 = getelementptr inbounds %struct.LZ4F_frameInfo_t, ptr %21, i32 0, i32 0
  store i32 4, ptr %22, align 8
  %23 = getelementptr inbounds nuw %struct.LZ4F_preferences_t, ptr %7, i32 0, i32 0
  %24 = getelementptr inbounds nuw %struct.LZ4F_frameInfo_t, ptr %23, i32 0, i32 2
  store i32 1, ptr %24, align 8, !tbaa !20
  %25 = getelementptr inbounds nuw %struct.LZ4F_preferences_t, ptr %7, i32 0, i32 0
  %26 = getelementptr inbounds nuw %struct.LZ4F_frameInfo_t, ptr %25, i32 0, i32 6
  store i32 1, ptr %26, align 4, !tbaa !21
  call void @llvm.lifetime.start.p0(i64 8, ptr %8) #8
  %27 = load ptr, ptr %5, align 8, !tbaa !12
  %28 = icmp eq ptr %27, null
  br i1 %28, label %29, label %30

29:                                               ; preds = %3
  br label %32

30:                                               ; preds = %3
  %31 = load ptr, ptr %5, align 8, !tbaa !12
  br label %32

32:                                               ; preds = %30, %29
  %33 = phi ptr [ %7, %29 ], [ %31, %30 ]
  store ptr %33, ptr %8, align 8, !tbaa !12
  call void @llvm.lifetime.start.p0(i64 4, ptr %9) #8
  %34 = load ptr, ptr %8, align 8, !tbaa !12
  %35 = getelementptr inbounds nuw %struct.LZ4F_preferences_t, ptr %34, i32 0, i32 2
  %36 = load i32, ptr %35, align 4, !tbaa !17
  %37 = load i64, ptr %4, align 8, !tbaa !3
  %38 = icmp eq i64 %37, 0
  %39 = zext i1 %38 to i32
  %40 = or i32 %36, %39
  store i32 %40, ptr %9, align 4, !tbaa !10
  call void @llvm.lifetime.start.p0(i64 4, ptr %10) #8
  %41 = load ptr, ptr %8, align 8, !tbaa !12
  %42 = getelementptr inbounds nuw %struct.LZ4F_preferences_t, ptr %41, i32 0, i32 0
  %43 = getelementptr inbounds nuw %struct.LZ4F_frameInfo_t, ptr %42, i32 0, i32 0
  %44 = load i32, ptr %43, align 8, !tbaa !22
  store i32 %44, ptr %10, align 4, !tbaa !10
  call void @llvm.lifetime.start.p0(i64 8, ptr %11) #8
  %45 = load i32, ptr %10, align 4, !tbaa !10
  %46 = call i64 @LZ4F_getBlockSize(i32 noundef %45)
  store i64 %46, ptr %11, align 8, !tbaa !3
  call void @llvm.lifetime.start.p0(i64 8, ptr %12) #8
  %47 = load i64, ptr %11, align 8, !tbaa !3
  %48 = sub i64 %47, 1
  store i64 %48, ptr %12, align 8, !tbaa !3
  call void @llvm.lifetime.start.p0(i64 8, ptr %13) #8
  %49 = load i64, ptr %6, align 8, !tbaa !3
  %50 = load i64, ptr %12, align 8, !tbaa !3
  %51 = icmp ult i64 %49, %50
  br i1 %51, label %52, label %54

52:                                               ; preds = %32
  %53 = load i64, ptr %6, align 8, !tbaa !3
  br label %56

54:                                               ; preds = %32
  %55 = load i64, ptr %12, align 8, !tbaa !3
  br label %56

56:                                               ; preds = %54, %52
  %57 = phi i64 [ %53, %52 ], [ %55, %54 ]
  store i64 %57, ptr %13, align 8, !tbaa !3
  call void @llvm.lifetime.start.p0(i64 8, ptr %14) #8
  %58 = load i64, ptr %4, align 8, !tbaa !3
  %59 = load i64, ptr %13, align 8, !tbaa !3
  %60 = add i64 %58, %59
  store i64 %60, ptr %14, align 8, !tbaa !3
  call void @llvm.lifetime.start.p0(i64 4, ptr %15) #8
  %61 = load i64, ptr %14, align 8, !tbaa !3
  %62 = load i64, ptr %11, align 8, !tbaa !3
  %63 = udiv i64 %61, %62
  %64 = trunc i64 %63 to i32
  store i32 %64, ptr %15, align 4, !tbaa !10
  call void @llvm.lifetime.start.p0(i64 8, ptr %16) #8
  %65 = load i64, ptr %14, align 8, !tbaa !3
  %66 = load i64, ptr %11, align 8, !tbaa !3
  %67 = sub i64 %66, 1
  %68 = and i64 %65, %67
  store i64 %68, ptr %16, align 8, !tbaa !3
  call void @llvm.lifetime.start.p0(i64 8, ptr %17) #8
  %69 = load i32, ptr %9, align 4, !tbaa !10
  %70 = icmp ne i32 %69, 0
  br i1 %70, label %71, label %73

71:                                               ; preds = %56
  %72 = load i64, ptr %16, align 8, !tbaa !3
  br label %74

73:                                               ; preds = %56
  br label %74

74:                                               ; preds = %73, %71
  %75 = phi i64 [ %72, %71 ], [ 0, %73 ]
  store i64 %75, ptr %17, align 8, !tbaa !3
  call void @llvm.lifetime.start.p0(i64 4, ptr %18) #8
  %76 = load i32, ptr %15, align 4, !tbaa !10
  %77 = load i64, ptr %17, align 8, !tbaa !3
  %78 = icmp ugt i64 %77, 0
  %79 = zext i1 %78 to i32
  %80 = add i32 %76, %79
  store i32 %80, ptr %18, align 4, !tbaa !10
  call void @llvm.lifetime.start.p0(i64 8, ptr %19) #8
  %81 = load ptr, ptr %8, align 8, !tbaa !12
  %82 = getelementptr inbounds nuw %struct.LZ4F_preferences_t, ptr %81, i32 0, i32 0
  %83 = getelementptr inbounds nuw %struct.LZ4F_frameInfo_t, ptr %82, i32 0, i32 6
  %84 = load i32, ptr %83, align 4, !tbaa !21
  %85 = zext i32 %84 to i64
  %86 = mul i64 4, %85
  store i64 %86, ptr %19, align 8, !tbaa !3
  call void @llvm.lifetime.start.p0(i64 8, ptr %20) #8
  %87 = load ptr, ptr %8, align 8, !tbaa !12
  %88 = getelementptr inbounds nuw %struct.LZ4F_preferences_t, ptr %87, i32 0, i32 0
  %89 = getelementptr inbounds nuw %struct.LZ4F_frameInfo_t, ptr %88, i32 0, i32 2
  %90 = load i32, ptr %89, align 8, !tbaa !20
  %91 = zext i32 %90 to i64
  %92 = mul i64 %91, 4
  %93 = add i64 4, %92
  store i64 %93, ptr %20, align 8, !tbaa !3
  %94 = load i64, ptr %19, align 8, !tbaa !3
  %95 = add i64 4, %94
  %96 = load i32, ptr %18, align 4, !tbaa !10
  %97 = zext i32 %96 to i64
  %98 = mul i64 %95, %97
  %99 = load i64, ptr %11, align 8, !tbaa !3
  %100 = load i32, ptr %15, align 4, !tbaa !10
  %101 = zext i32 %100 to i64
  %102 = mul i64 %99, %101
  %103 = add i64 %98, %102
  %104 = load i64, ptr %17, align 8, !tbaa !3
  %105 = add i64 %103, %104
  %106 = load i64, ptr %20, align 8, !tbaa !3
  %107 = add i64 %105, %106
  call void @llvm.lifetime.end.p0(i64 8, ptr %20) #8
  call void @llvm.lifetime.end.p0(i64 8, ptr %19) #8
  call void @llvm.lifetime.end.p0(i64 4, ptr %18) #8
  call void @llvm.lifetime.end.p0(i64 8, ptr %17) #8
  call void @llvm.lifetime.end.p0(i64 8, ptr %16) #8
  call void @llvm.lifetime.end.p0(i64 4, ptr %15) #8
  call void @llvm.lifetime.end.p0(i64 8, ptr %14) #8
  call void @llvm.lifetime.end.p0(i64 8, ptr %13) #8
  call void @llvm.lifetime.end.p0(i64 8, ptr %12) #8
  call void @llvm.lifetime.end.p0(i64 8, ptr %11) #8
  call void @llvm.lifetime.end.p0(i64 4, ptr %10) #8
  call void @llvm.lifetime.end.p0(i64 4, ptr %9) #8
  call void @llvm.lifetime.end.p0(i64 8, ptr %8) #8
  call void @llvm.lifetime.end.p0(i64 56, ptr %7) #8
  ret i64 %107
}

; Function Attrs: nounwind uwtable
define i64 @LZ4F_compressBound(i64 noundef %0, ptr noundef %1) #0 {
  %3 = alloca i64, align 8
  %4 = alloca i64, align 8
  %5 = alloca ptr, align 8
  store i64 %0, ptr %4, align 8, !tbaa !3
  store ptr %1, ptr %5, align 8, !tbaa !12
  %6 = load ptr, ptr %5, align 8, !tbaa !12
  %7 = icmp ne ptr %6, null
  br i1 %7, label %8, label %17

8:                                                ; preds = %2
  %9 = load ptr, ptr %5, align 8, !tbaa !12
  %10 = getelementptr inbounds nuw %struct.LZ4F_preferences_t, ptr %9, i32 0, i32 2
  %11 = load i32, ptr %10, align 4, !tbaa !17
  %12 = icmp ne i32 %11, 0
  br i1 %12, label %13, label %17

13:                                               ; preds = %8
  %14 = load i64, ptr %4, align 8, !tbaa !3
  %15 = load ptr, ptr %5, align 8, !tbaa !12
  %16 = call i64 @LZ4F_compressBound_internal(i64 noundef %14, ptr noundef %15, i64 noundef 0)
  store i64 %16, ptr %3, align 8
  br label %21

17:                                               ; preds = %8, %2
  %18 = load i64, ptr %4, align 8, !tbaa !3
  %19 = load ptr, ptr %5, align 8, !tbaa !12
  %20 = call i64 @LZ4F_compressBound_internal(i64 noundef %18, ptr noundef %19, i64 noundef -1)
  store i64 %20, ptr %3, align 8
  br label %21

21:                                               ; preds = %17, %13
  %22 = load i64, ptr %3, align 8
  ret i64 %22
}