; Function Attrs: mustprogress nofree norecurse nosync nounwind willreturn memory(argmem: read) uwtable
define i64 @LZ4F_compressBound(i64 noundef %0, ptr noundef readonly captures(address_is_null) %1) local_unnamed_addr #2 {
  %.not = icmp eq ptr %1, null
  br i1 %.not, label %.split, label %13

.split:                                           ; preds = %2
  %.not28 = icmp eq i64 %0, 0
  %3 = add i64 %0, 65535
  %4 = lshr i64 %3, 16
  %5 = zext i1 %.not28 to i64
  %6 = add nuw nsw i64 %4, %5
  %7 = shl nuw nsw i64 %6, 3
  %8 = and i64 %7, 34359738360
  %9 = and i64 %3, 281474976645120
  %10 = select i1 %.not28, i64 65543, i64 8
  %11 = add nuw nsw i64 %10, %9
  %12 = add nuw nsw i64 %11, %8
  br label %69

13:                                               ; preds = %2
  %14 = getelementptr inbounds nuw i8, ptr %1, i64 36
  %15 = load i32, ptr %14, align 4, !tbaa !12
  %.not8 = icmp eq i32 %15, 0
  br i1 %.not8, label %.cont.cont.i, label %.cont.cont.i9

.cont.cont.i:                                     ; preds = %13
  %.not27 = icmp eq i64 %0, 0
  %.else.val40.i = load i32, ptr %1, align 8, !tbaa !20
  %.else.val40.fr.i = freeze i32 %.else.val40.i
  %16 = icmp eq i32 %.else.val40.fr.i, 0
  br i1 %16, label %LZ4F_getBlockSize.exit.thread47.i, label %17

17:                                               ; preds = %.cont.cont.i
  %18 = and i32 %.else.val40.fr.i, -4
  %or.cond.not.i.i = icmp eq i32 %18, 4
  br i1 %or.cond.not.i.i, label %LZ4F_getBlockSize.exit.thread47.i, label %LZ4F_compressBound_internal.exit

LZ4F_getBlockSize.exit.thread47.i:                ; preds = %17, %.cont.cont.i
  %.ph.i = phi i32 [ 4, %.cont.cont.i ], [ %.else.val40.fr.i, %17 ]
  %19 = add nsw i32 %.ph.i, -4
  %20 = zext nneg i32 %19 to i64
  %21 = getelementptr inbounds nuw [4 x i64], ptr @LZ4F_getBlockSize.blockSizes, i64 0, i64 %20
  %22 = load i64, ptr %21, align 8, !tbaa !8
  br label %LZ4F_compressBound_internal.exit

LZ4F_compressBound_internal.exit:                 ; preds = %17, %LZ4F_getBlockSize.exit.thread47.i
  %.0.i45.i = phi i64 [ %22, %LZ4F_getBlockSize.exit.thread47.i ], [ -2, %17 ]
  %.sroa.gep30.i = getelementptr inbounds nuw i8, ptr %1, i64 28
  %.else.val38.i = load i32, ptr %.sroa.gep30.i, align 4, !tbaa !63
  %23 = zext i32 %.else.val38.i to i64
  %24 = shl nuw nsw i64 %23, 2
  %.sroa.gep33.i = getelementptr inbounds nuw i8, ptr %1, i64 8
  %.else.val39.i = load i32, ptr %.sroa.gep33.i, align 8, !tbaa !64
  %25 = zext i32 %.else.val39.i to i64
  %26 = shl nuw nsw i64 %25, 2
  %27 = add nuw nsw i64 %24, 4
  %28 = add i64 %.0.i45.i, -1
  %29 = add i64 %28, %0
  %30 = udiv i64 %29, %.0.i45.i
  %31 = select i1 %.not27, i64 %28, i64 0
  %32 = icmp ne i64 %31, 0
  %33 = zext i1 %32 to i64
  %34 = add i64 %30, %33
  %35 = and i64 %34, 4294967295
  %36 = mul i64 %35, %27
  %37 = and i64 %30, 4294967295
  %38 = mul i64 %37, %.0.i45.i
  %39 = add i64 %31, 4
  %40 = add i64 %39, %26
  %41 = add i64 %40, %38
  %42 = add i64 %41, %36
  br label %69

.cont.cont.i9:                                    ; preds = %13
  %.else.val40.i12 = load i32, ptr %1, align 8, !tbaa !20
  %.else.val40.fr.i13 = freeze i32 %.else.val40.i12
  %43 = icmp eq i32 %.else.val40.fr.i13, 0
  br i1 %43, label %LZ4F_getBlockSize.exit.thread47.i23, label %44

44:                                               ; preds = %.cont.cont.i9
  %45 = and i32 %.else.val40.fr.i13, -4
  %or.cond.not.i.i14 = icmp eq i32 %45, 4
  br i1 %or.cond.not.i.i14, label %LZ4F_getBlockSize.exit.thread47.i23, label %LZ4F_compressBound_internal.exit26

LZ4F_getBlockSize.exit.thread47.i23:              ; preds = %44, %.cont.cont.i9
  %.ph.i24 = phi i32 [ 4, %.cont.cont.i9 ], [ %.else.val40.fr.i13, %44 ]
  %46 = add nsw i32 %.ph.i24, -4
  %47 = zext nneg i32 %46 to i64
  %48 = getelementptr inbounds nuw [4 x i64], ptr @LZ4F_getBlockSize.blockSizes, i64 0, i64 %47
  %49 = load i64, ptr %48, align 8, !tbaa !8
  br label %LZ4F_compressBound_internal.exit26

LZ4F_compressBound_internal.exit26:               ; preds = %44, %LZ4F_getBlockSize.exit.thread47.i23
  %.0.i45.i16 = phi i64 [ %49, %LZ4F_getBlockSize.exit.thread47.i23 ], [ -2, %44 ]
  %.sroa.gep30.i17 = getelementptr inbounds nuw i8, ptr %1, i64 28
  %.else.val38.i18 = load i32, ptr %.sroa.gep30.i17, align 4, !tbaa !63
  %50 = zext i32 %.else.val38.i18 to i64
  %51 = shl nuw nsw i64 %50, 2
  %.sroa.gep33.i19 = getelementptr inbounds nuw i8, ptr %1, i64 8
  %.else.val39.i20 = load i32, ptr %.sroa.gep33.i19, align 8, !tbaa !64
  %52 = zext i32 %.else.val39.i20 to i64
  %53 = shl nuw nsw i64 %52, 2
  %54 = add nuw nsw i64 %51, 4
  %55 = add i64 %.0.i45.i16, -1
  %56 = udiv i64 %0, %.0.i45.i16
  %57 = and i64 %55, %0
  %58 = icmp ne i64 %57, 0
  %59 = zext i1 %58 to i64
  %60 = add i64 %56, %59
  %61 = and i64 %60, 4294967295
  %62 = mul i64 %61, %54
  %63 = and i64 %56, 4294967295
  %64 = mul i64 %63, %.0.i45.i16
  %65 = add i64 %57, 4
  %66 = add i64 %65, %53
  %67 = add i64 %66, %64
  %68 = add i64 %67, %62
  br label %69

69:                                               ; preds = %.split, %LZ4F_compressBound_internal.exit, %LZ4F_compressBound_internal.exit26
  %.0 = phi i64 [ %68, %LZ4F_compressBound_internal.exit26 ], [ %12, %.split ], [ %42, %LZ4F_compressBound_internal.exit ]
  ret i64 %.0
}